; Function Attrs: nofree nounwind uwtable
define internal noundef i64 @FileOutStream_Write(ptr noundef readonly captures(none) %0, ptr noundef captures(none) %1, i64 noundef %2) #1 {
  %4 = getelementptr inbounds nuw i8, ptr %0, i64 8
  %5 = icmp eq i64 %2, 0
  br i1 %5, label %File_Write.exit, label %6

6:                                                ; preds = %3
  %7 = load ptr, ptr %4, align 8, !tbaa !3
  %8 = tail call i64 @fwrite(ptr noundef %1, i64 noundef 1, i64 noundef %2, ptr noundef %7)
  %9 = icmp eq i64 %8, %2
  br i1 %9, label %File_Write.exit, label %10

10:                                               ; preds = %6
  %11 = load ptr, ptr %4, align 8, !tbaa !3
  %12 = tail call i32 @ferror(ptr noundef %11) #6
  br label %File_Write.exit

File_Write.exit:                                  ; preds = %3, %6, %10
  %.0 = phi i64 [ 0, %3 ], [ %2, %6 ], [ %8, %10 ]
  ret i64 %.0
}